target datalayout = "e-m:e-p270:32:32-p271:32:32-p272:64:64-i64:64-i128:128-f80:128-n8:16:32:64-S128"
target triple = "x86_64-pc-linux-gnu"

%struct.mbedtls_error_pair_t = type { i16, i16 }
%struct.mbedtls_ssl_context = type { ptr, i32, i32, i32, i32, i32, ptr, ptr, ptr, ptr, ptr, ptr, ptr, ptr, ptr, ptr, ptr, ptr, ptr, ptr, ptr, ptr, ptr, ptr, ptr, ptr, ptr, ptr, ptr, ptr, ptr, ptr, ptr, i32, i64, i64, i16, i64, i64, i64, i64, i32, i32, i8, i8, i32, i8, ptr, ptr, ptr, ptr, ptr, ptr, ptr, i32, i64, i64, [8 x i8], i16, ptr, ptr, ptr, i64, i32, i64, [12 x i8], [12 x i8], [32 x i8], i8, i8, ptr, ptr, %union.mbedtls_ssl_user_data_t }
%union.mbedtls_ssl_user_data_t = type { i64 }
%struct.mbedtls_mpi = type { ptr, i16, i16 }
%struct.mbedtls_ssl_handshake_params = type { i8, i8, i8, i8, i8, i32, i8, i8, i8, i8, ptr, ptr, ptr, ptr, ptr, i8, i8, i8, i8, i16, i16, [20 x i16], ptr, ptr, %struct.mbedtls_dhm_context, %struct.mbedtls_ecdh_context, i16, i64, i32, i8, [1024 x i8], i64, ptr, ptr, i64, i16, ptr, ptr, ptr, ptr, %struct.anon, ptr, i16, i8, i32, i32, i32, ptr, ptr, ptr, i32, ptr, [8 x i8], i8, [32 x i8], i8, i16, %struct.mbedtls_md_context_t, %struct.mbedtls_md_context_t, i16, i8, %union.anon.1, [64 x i8], [1076 x i8], i64, i32, i32, i8, ptr, ptr, %union.anon.4, %struct.mbedtls_ssl_tls13_handshake_secrets, ptr, i64, ptr }
%struct.mbedtls_dhm_context = type { %struct.mbedtls_mpi, %struct.mbedtls_mpi, %struct.mbedtls_mpi, %struct.mbedtls_mpi, %struct.mbedtls_mpi, %struct.mbedtls_mpi, %struct.mbedtls_mpi, %struct.mbedtls_mpi, %struct.mbedtls_mpi, %struct.mbedtls_mpi }
%struct.mbedtls_ecdh_context = type { i8, i32, i32, %union.anon }
%union.anon = type { %struct.mbedtls_ecdh_context_mbed }
%struct.mbedtls_ecdh_context_mbed = type { %struct.mbedtls_ecp_group, %struct.mbedtls_mpi, %struct.mbedtls_ecp_point, %struct.mbedtls_ecp_point, %struct.mbedtls_mpi }
%struct.mbedtls_ecp_group = type { i32, %struct.mbedtls_mpi, %struct.mbedtls_mpi, %struct.mbedtls_mpi, %struct.mbedtls_ecp_point, %struct.mbedtls_mpi, i64, i64, i32, ptr, ptr, ptr, ptr, ptr, i64 }
%struct.mbedtls_ecp_point = type { %struct.mbedtls_mpi, %struct.mbedtls_mpi, %struct.mbedtls_mpi }
%struct.anon = type { i64, i8, [4 x %struct.mbedtls_ssl_hs_buffer], %struct.anon.0 }
%struct.mbedtls_ssl_hs_buffer = type { i8, ptr, i64 }
%struct.anon.0 = type { ptr, i64, i32 }
%struct.mbedtls_md_context_t = type { ptr, ptr, ptr }
%union.anon.1 = type { %struct.anon.2 }
%struct.anon.2 = type { i8, [64 x i8], i64 }
%union.anon.4 = type { [64 x i8] }
%struct.mbedtls_ssl_tls13_handshake_secrets = type { [64 x i8], [64 x i8] }

@.str = private unnamed_addr constant [130 x i8] c"generated/home/dtcxzyw/WorkSpace/Projects/compilers/llvm-opt-benchmark/bench/lief/bench_build/mbed_src/library/ssl_tls13_client.c\00", align 1
@.str.35 = private unnamed_addr constant [16 x i8] c"psa_destroy_key\00", align 1
@psa_to_ssl_errors = external constant [7 x %struct.mbedtls_error_pair_t], align 16

; Function Attrs: nounwind uwtable
define internal i32 @local_err_translation(i32 noundef %0) #0 {
  %2 = alloca i32, align 4
  store i32 %0, ptr %2, align 4, !tbaa !12
  %3 = load i32, ptr %2, align 4, !tbaa !12
  %4 = call i32 @psa_status_to_mbedtls(i32 noundef %3, ptr noundef @psa_to_ssl_errors, i64 noundef 7, ptr noundef @psa_generic_status_to_mbedtls)
  ret i32 %4
}

; Function Attrs: inlinehint nounwind uwtable
define internal i32 @mbedtls_ssl_tls13_named_group_is_ffdh(i16 noundef zeroext %0) #3 {
  %2 = alloca i16, align 2
  store i16 %0, ptr %2, align 2, !tbaa !47
  %3 = load i16, ptr %2, align 2, !tbaa !47
  %4 = zext i16 %3 to i32
  %5 = icmp sge i32 %4, 256
  br i1 %5, label %6, label %10

6:                                                ; preds = %1
  %7 = load i16, ptr %2, align 2, !tbaa !47
  %8 = zext i16 %7 to i32
  %9 = icmp sle i32 %8, 260
  br label %10

10:                                               ; preds = %6, %1
  %11 = phi i1 [ false, %1 ], [ %9, %6 ]
  %12 = zext i1 %11 to i32
  ret i32 %12
}

; Function Attrs: inlinehint nounwind uwtable
define internal i32 @mbedtls_ssl_tls13_named_group_is_ecdhe(i16 noundef zeroext %0) #3 {
  %2 = alloca i16, align 2
  store i16 %0, ptr %2, align 2, !tbaa !47
  %3 = load i16, ptr %2, align 2, !tbaa !47
  %4 = zext i16 %3 to i32
  %5 = icmp eq i32 %4, 29
  br i1 %5, label %22, label %6

6:                                                ; preds = %1
  %7 = load i16, ptr %2, align 2, !tbaa !47
  %8 = zext i16 %7 to i32
  %9 = icmp eq i32 %8, 23
  br i1 %9, label %22, label %10

10:                                               ; preds = %6
  %11 = load i16, ptr %2, align 2, !tbaa !47
  %12 = zext i16 %11 to i32
  %13 = icmp eq i32 %12, 24
  br i1 %13, label %22, label %14

14:                                               ; preds = %10
  %15 = load i16, ptr %2, align 2, !tbaa !47
  %16 = zext i16 %15 to i32
  %17 = icmp eq i32 %16, 25
  br i1 %17, label %22, label %18

18:                                               ; preds = %14
  %19 = load i16, ptr %2, align 2, !tbaa !47
  %20 = zext i16 %19 to i32
  %21 = icmp eq i32 %20, 30
  br label %22

22:                                               ; preds = %18, %14, %10, %6, %1
  %23 = phi i1 [ true, %14 ], [ true, %10 ], [ true, %6 ], [ true, %1 ], [ %21, %18 ]
  %24 = zext i1 %23 to i32
  ret i32 %24
}

; Function Attrs: nounwind uwtable
define internal i32 @ssl_tls13_reset_key_share(ptr noundef %0) #0 {
  %2 = alloca i32, align 4
  %3 = alloca ptr, align 8
  %4 = alloca i16, align 2
  %5 = alloca i32, align 4
  %6 = alloca i32, align 4
  %7 = alloca i32, align 4
  store ptr %0, ptr %3, align 8, !tbaa !3
  call void @llvm.lifetime.start.p0(i64 2, ptr %4) #10
  %8 = load ptr, ptr %3, align 8, !tbaa !3
  %9 = getelementptr inbounds nuw %struct.mbedtls_ssl_context, ptr %8, i32 0, i32 16
  %10 = load ptr, ptr %9, align 8, !tbaa !52
  %11 = getelementptr inbounds nuw %struct.mbedtls_ssl_handshake_params, ptr %10, i32 0, i32 59
  %12 = load i16, ptr %11, align 8, !tbaa !68
  store i16 %12, ptr %4, align 2, !tbaa !47
  %13 = load i16, ptr %4, align 2, !tbaa !47
  %14 = zext i16 %13 to i32
  %15 = icmp eq i32 %14, 0
  br i1 %15, label %16, label %17

16:                                               ; preds = %1
  store i32 -27648, ptr %2, align 4
  store i32 1, ptr %5, align 4
  br label %48

17:                                               ; preds = %1
  %18 = load i16, ptr %4, align 2, !tbaa !47
  %19 = call i32 @mbedtls_ssl_tls13_named_group_is_ecdhe(i16 noundef zeroext %18)
  %20 = icmp ne i32 %19, 0
  br i1 %20, label %25, label %21

21:                                               ; preds = %17
  %22 = load i16, ptr %4, align 2, !tbaa !47
  %23 = call i32 @mbedtls_ssl_tls13_named_group_is_ffdh(i16 noundef zeroext %22)
  %24 = icmp ne i32 %23, 0
  br i1 %24, label %25, label %46

25:                                               ; preds = %21, %17
  call void @llvm.lifetime.start.p0(i64 4, ptr %6) #10
  store i32 -110, ptr %6, align 4, !tbaa !12
  call void @llvm.lifetime.start.p0(i64 4, ptr %7) #10
  store i32 -151, ptr %7, align 4, !tbaa !12
  %26 = load ptr, ptr %3, align 8, !tbaa !3
  %27 = getelementptr inbounds nuw %struct.mbedtls_ssl_context, ptr %26, i32 0, i32 16
  %28 = load ptr, ptr %27, align 8, !tbaa !52
  %29 = getelementptr inbounds nuw %struct.mbedtls_ssl_handshake_params, ptr %28, i32 0, i32 28
  %30 = load i32, ptr %29, align 8, !tbaa !100
  %31 = call i32 @psa_destroy_key(i32 noundef %30)
  store i32 %31, ptr %7, align 4, !tbaa !12
  %32 = load i32, ptr %7, align 4, !tbaa !12
  %33 = icmp ne i32 %32, 0
  br i1 %33, label %34, label %40

34:                                               ; preds = %25
  %35 = load i32, ptr %7, align 4, !tbaa !12
  %36 = call i32 @local_err_translation(i32 noundef %35)
  store i32 %36, ptr %6, align 4, !tbaa !12
  %37 = load ptr, ptr %3, align 8, !tbaa !3
  %38 = load i32, ptr %6, align 4, !tbaa !12
  call void @mbedtls_debug_print_ret(ptr noundef %37, i32 noundef 1, ptr noundef @.str, i32 noundef 193, ptr noundef @.str.35, i32 noundef %38)
  %39 = load i32, ptr %6, align 4, !tbaa !12
  store i32 %39, ptr %2, align 4
  store i32 1, ptr %5, align 4
  br label %45

40:                                               ; preds = %25
  %41 = load ptr, ptr %3, align 8, !tbaa !3
  %42 = getelementptr inbounds nuw %struct.mbedtls_ssl_context, ptr %41, i32 0, i32 16
  %43 = load ptr, ptr %42, align 8, !tbaa !52
  %44 = getelementptr inbounds nuw %struct.mbedtls_ssl_handshake_params, ptr %43, i32 0, i32 28
  store i32 0, ptr %44, align 8, !tbaa !100
  store i32 0, ptr %2, align 4
  store i32 1, ptr %5, align 4
  br label %45

45:                                               ; preds = %40, %34
  call void @llvm.lifetime.end.p0(i64 4, ptr %7) #10
  call void @llvm.lifetime.end.p0(i64 4, ptr %6) #10
  br label %48

46:                                               ; preds = %21
  br label %47

47:                                               ; preds = %46
  store i32 -27648, ptr %2, align 4
  store i32 1, ptr %5, align 4
  br label %48

48:                                               ; preds = %47, %45, %16
  call void @llvm.lifetime.end.p0(i64 2, ptr %4) #10
  %49 = load i32, ptr %2, align 4
  ret i32 %49
}