; Function Attrs: nounwind uwtable
define internal fastcc noundef i32 @ssl_tls13_reset_key_share(ptr noundef %0) unnamed_addr #0 {
  %2 = getelementptr inbounds nuw i8, ptr %0, i64 112
  %3 = load ptr, ptr %2, align 8, !tbaa !17
  %4 = getelementptr inbounds nuw i8, ptr %3, i64 2032
  %5 = load i16, ptr %4, align 8, !tbaa !62
  switch i16 %5, label %6 [
    i16 0, label %17
    i16 29, label %mbedtls_ssl_tls13_named_group_is_ecdhe.exit.thread
    i16 25, label %mbedtls_ssl_tls13_named_group_is_ecdhe.exit.thread
    i16 24, label %mbedtls_ssl_tls13_named_group_is_ecdhe.exit.thread
    i16 23, label %mbedtls_ssl_tls13_named_group_is_ecdhe.exit.thread
    i16 30, label %mbedtls_ssl_tls13_named_group_is_ecdhe.exit.thread
  ]

6:                                                ; preds = %1
  %7 = add i16 %5, -261
  %8 = icmp ult i16 %7, -5
  br i1 %8, label %17, label %mbedtls_ssl_tls13_named_group_is_ecdhe.exit.thread

mbedtls_ssl_tls13_named_group_is_ecdhe.exit.thread: ; preds = %1, %1, %1, %1, %1, %6
  %9 = getelementptr inbounds nuw i8, ptr %3, i64 632
  %10 = load i32, ptr %9, align 8, !tbaa !105
  %11 = tail call i32 @psa_destroy_key(i32 noundef %10) #12
  %.not13 = icmp eq i32 %11, 0
  br i1 %.not13, label %14, label %12

12:                                               ; preds = %mbedtls_ssl_tls13_named_group_is_ecdhe.exit.thread
  %13 = tail call i32 @psa_status_to_mbedtls(i32 noundef range(i32 1, 0) %11, ptr noundef nonnull @psa_to_ssl_errors, i64 noundef 7, ptr noundef nonnull @psa_generic_status_to_mbedtls) #12
  tail call void @mbedtls_debug_print_ret(ptr noundef nonnull %0, i32 noundef 1, ptr noundef nonnull @.str, i32 noundef 193, ptr noundef nonnull @.str.35, i32 noundef %13) #12
  br label %17

14:                                               ; preds = %mbedtls_ssl_tls13_named_group_is_ecdhe.exit.thread
  %15 = load ptr, ptr %2, align 8, !tbaa !17
  %16 = getelementptr inbounds nuw i8, ptr %15, i64 632
  store i32 0, ptr %16, align 8, !tbaa !105
  br label %17

17:                                               ; preds = %1, %6, %12, %14
  %.0 = phi i32 [ -27648, %1 ], [ %13, %12 ], [ 0, %14 ], [ -27648, %6 ]
  ret i32 %.0
}